target datalayout = "e-m:e-p270:32:32-p271:32:32-p272:64:64-i64:64-i128:128-f80:128-n8:16:32:64-S128"
target triple = "x86_64-pc-linux-gnu"

; Function Attrs: nounwind uwtable
define internal void @filter_row8(ptr noundef %0, ptr noundef %1, ptr noundef %2, i32 noundef %3, i32 noundef %4, i32 noundef %5, i32 noundef %6, i32 noundef %7, ptr noundef %8) #1 {
  %10 = alloca ptr, align 8
  %11 = alloca ptr, align 8
  %12 = alloca ptr, align 8
  %13 = alloca i32, align 4
  %14 = alloca i32, align 4
  %15 = alloca i32, align 4
  %16 = alloca i32, align 4
  %17 = alloca i32, align 4
  %18 = alloca ptr, align 8
  %19 = alloca ptr, align 8
  %20 = alloca ptr, align 8
  %21 = alloca ptr, align 8
  %22 = alloca i32, align 4
  %23 = alloca i32, align 4
  %24 = alloca i32, align 4
  %25 = alloca i32, align 4
  %26 = alloca i32, align 4
  %27 = alloca i32, align 4
  %28 = alloca i32, align 4
  %29 = alloca i32, align 4
  %30 = alloca i32, align 4
  %31 = alloca i32, align 4
  %32 = alloca i32, align 4
  %33 = alloca i32, align 4
  %34 = alloca i32, align 4
  %35 = alloca i32, align 4
  store ptr %0, ptr %10, align 8, !tbaa !31
  store ptr %1, ptr %11, align 8, !tbaa !31
  store ptr %2, ptr %12, align 8, !tbaa !85
  store i32 %3, ptr %13, align 4, !tbaa !32
  store i32 %4, ptr %14, align 4, !tbaa !32
  store i32 %5, ptr %15, align 4, !tbaa !32
  store i32 %6, ptr %16, align 4, !tbaa !32
  store i32 %7, ptr %17, align 4, !tbaa !32
  store ptr %8, ptr %18, align 8, !tbaa !83
  call void @llvm.lifetime.start.p0(i64 8, ptr %19) #9
  %36 = load ptr, ptr %10, align 8, !tbaa !31
  store ptr %36, ptr %19, align 8, !tbaa !31
  call void @llvm.lifetime.start.p0(i64 8, ptr %20) #9
  %37 = load ptr, ptr %12, align 8, !tbaa !85
  store ptr %37, ptr %20, align 8, !tbaa !85
  call void @llvm.lifetime.start.p0(i64 8, ptr %21) #9
  %38 = load ptr, ptr %11, align 8, !tbaa !31
  store ptr %38, ptr %21, align 8, !tbaa !31
  call void @llvm.lifetime.start.p0(i64 4, ptr %22) #9
  store i32 0, ptr %22, align 4, !tbaa !32
  br label %39

39:                                               ; preds = %175, %9
  %40 = load i32, ptr %22, align 4, !tbaa !32
  %41 = load i32, ptr %13, align 4, !tbaa !32
  %42 = icmp slt i32 %40, %41
  br i1 %42, label %44, label %43

43:                                               ; preds = %39
  store i32 2, ptr %23, align 4
  call void @llvm.lifetime.end.p0(i64 4, ptr %22) #9
  br label %178

44:                                               ; preds = %39
  call void @llvm.lifetime.start.p0(i64 4, ptr %24) #9
  %45 = load ptr, ptr %19, align 8, !tbaa !31
  %46 = load i32, ptr %22, align 4, !tbaa !32
  %47 = sext i32 %46 to i64
  %48 = getelementptr inbounds i8, ptr %45, i64 %47
  %49 = load i8, ptr %48, align 1, !tbaa !94
  %50 = zext i8 %49 to i32
  store i32 %50, ptr %24, align 4, !tbaa !32
  call void @llvm.lifetime.start.p0(i64 4, ptr %25) #9
  store i32 0, ptr %25, align 4, !tbaa !32
  call void @llvm.lifetime.start.p0(i64 4, ptr %26) #9
  store i32 0, ptr %26, align 4, !tbaa !32
  call void @llvm.lifetime.start.p0(i64 4, ptr %27) #9
  call void @llvm.lifetime.start.p0(i64 4, ptr %28) #9
  call void @llvm.lifetime.start.p0(i64 4, ptr %29) #9
  %51 = load i32, ptr %24, align 4, !tbaa !32
  store i32 %51, ptr %29, align 4, !tbaa !32
  call void @llvm.lifetime.start.p0(i64 4, ptr %30) #9
  store i32 0, ptr %30, align 4, !tbaa !32
  call void @llvm.lifetime.start.p0(i64 4, ptr %31) #9
  store i32 0, ptr %31, align 4, !tbaa !32
  call void @llvm.lifetime.start.p0(i64 4, ptr %32) #9
  call void @llvm.lifetime.start.p0(i64 4, ptr %33) #9
  call void @llvm.lifetime.start.p0(i64 4, ptr %34) #9
  %52 = load i32, ptr %14, align 4, !tbaa !32
  %53 = sub nsw i32 %52, 1
  store i32 %53, ptr %34, align 4, !tbaa !32
  call void @llvm.lifetime.start.p0(i64 4, ptr %35) #9
  %54 = load i32, ptr %14, align 4, !tbaa !32
  %55 = add nsw i32 %54, 1
  store i32 %55, ptr %35, align 4, !tbaa !32
  br label %56

56:                                               ; preds = %151, %44
  %57 = load i32, ptr %34, align 4, !tbaa !32
  %58 = icmp sge i32 %57, 0
  br i1 %58, label %59, label %63

59:                                               ; preds = %56
  %60 = load i32, ptr %35, align 4, !tbaa !32
  %61 = load i32, ptr %15, align 4, !tbaa !32
  %62 = icmp slt i32 %60, %61
  br label %63

63:                                               ; preds = %59, %56
  %64 = phi i1 [ false, %56 ], [ %62, %59 ]
  br i1 %64, label %66, label %65

65:                                               ; preds = %63
  store i32 5, ptr %23, align 4
  br label %156

66:                                               ; preds = %63
  %67 = load ptr, ptr %20, align 8, !tbaa !85
  %68 = load i32, ptr %34, align 4, !tbaa !32
  %69 = sext i32 %68 to i64
  %70 = getelementptr inbounds ptr, ptr %67, i64 %69
  %71 = load ptr, ptr %70, align 8, !tbaa !31
  %72 = load i32, ptr %22, align 4, !tbaa !32
  %73 = sext i32 %72 to i64
  %74 = getelementptr inbounds i8, ptr %71, i64 %73
  %75 = load i8, ptr %74, align 1, !tbaa !94
  %76 = zext i8 %75 to i32
  store i32 %76, ptr %32, align 4, !tbaa !32
  %77 = load i32, ptr %24, align 4, !tbaa !32
  %78 = load i32, ptr %32, align 4, !tbaa !32
  %79 = sub nsw i32 %77, %78
  %80 = icmp sge i32 %79, 0
  br i1 %80, label %81, label %85

81:                                               ; preds = %66
  %82 = load i32, ptr %24, align 4, !tbaa !32
  %83 = load i32, ptr %32, align 4, !tbaa !32
  %84 = sub nsw i32 %82, %83
  br label %90

85:                                               ; preds = %66
  %86 = load i32, ptr %24, align 4, !tbaa !32
  %87 = load i32, ptr %32, align 4, !tbaa !32
  %88 = sub nsw i32 %86, %87
  %89 = sub nsw i32 0, %88
  br label %90

90:                                               ; preds = %85, %81
  %91 = phi i32 [ %84, %81 ], [ %89, %85 ]
  store i32 %91, ptr %27, align 4, !tbaa !32
  %92 = load i32, ptr %27, align 4, !tbaa !32
  %93 = load i32, ptr %25, align 4, !tbaa !32
  %94 = add i32 %93, %92
  store i32 %94, ptr %25, align 4, !tbaa !32
  %95 = load i32, ptr %27, align 4, !tbaa !32
  %96 = load i32, ptr %16, align 4, !tbaa !32
  %97 = icmp ugt i32 %95, %96
  br i1 %97, label %102, label %98

98:                                               ; preds = %90
  %99 = load i32, ptr %25, align 4, !tbaa !32
  %100 = load i32, ptr %17, align 4, !tbaa !32
  %101 = icmp ugt i32 %99, %100
  br i1 %101, label %102, label %103

102:                                              ; preds = %98, %90
  store i32 5, ptr %23, align 4
  br label %156

103:                                              ; preds = %98
  %104 = load i32, ptr %30, align 4, !tbaa !32
  %105 = add nsw i32 %104, 1
  store i32 %105, ptr %30, align 4, !tbaa !32
  %106 = load i32, ptr %32, align 4, !tbaa !32
  %107 = load i32, ptr %29, align 4, !tbaa !32
  %108 = add i32 %107, %106
  store i32 %108, ptr %29, align 4, !tbaa !32
  %109 = load ptr, ptr %20, align 8, !tbaa !85
  %110 = load i32, ptr %35, align 4, !tbaa !32
  %111 = sext i32 %110 to i64
  %112 = getelementptr inbounds ptr, ptr %109, i64 %111
  %113 = load ptr, ptr %112, align 8, !tbaa !31
  %114 = load i32, ptr %22, align 4, !tbaa !32
  %115 = sext i32 %114 to i64
  %116 = getelementptr inbounds i8, ptr %113, i64 %115
  %117 = load i8, ptr %116, align 1, !tbaa !94
  %118 = zext i8 %117 to i32
  store i32 %118, ptr %33, align 4, !tbaa !32
  %119 = load i32, ptr %24, align 4, !tbaa !32
  %120 = load i32, ptr %33, align 4, !tbaa !32
  %121 = sub nsw i32 %119, %120
  %122 = icmp sge i32 %121, 0
  br i1 %122, label %123, label %127

123:                                              ; preds = %103
  %124 = load i32, ptr %24, align 4, !tbaa !32
  %125 = load i32, ptr %33, align 4, !tbaa !32
  %126 = sub nsw i32 %124, %125
  br label %132

127:                                              ; preds = %103
  %128 = load i32, ptr %24, align 4, !tbaa !32
  %129 = load i32, ptr %33, align 4, !tbaa !32
  %130 = sub nsw i32 %128, %129
  %131 = sub nsw i32 0, %130
  br label %132

132:                                              ; preds = %127, %123
  %133 = phi i32 [ %126, %123 ], [ %131, %127 ]
  store i32 %133, ptr %28, align 4, !tbaa !32
  %134 = load i32, ptr %28, align 4, !tbaa !32
  %135 = load i32, ptr %26, align 4, !tbaa !32
  %136 = add i32 %135, %134
  store i32 %136, ptr %26, align 4, !tbaa !32
  %137 = load i32, ptr %28, align 4, !tbaa !32
  %138 = load i32, ptr %16, align 4, !tbaa !32
  %139 = icmp ugt i32 %137, %138
  br i1 %139, label %144, label %140

140:                                              ; preds = %132
  %141 = load i32, ptr %26, align 4, !tbaa !32
  %142 = load i32, ptr %17, align 4, !tbaa !32
  %143 = icmp ugt i32 %141, %142
  br i1 %143, label %144, label %145

144:                                              ; preds = %140, %132
  store i32 5, ptr %23, align 4
  br label %156

145:                                              ; preds = %140
  %146 = load i32, ptr %31, align 4, !tbaa !32
  %147 = add nsw i32 %146, 1
  store i32 %147, ptr %31, align 4, !tbaa !32
  %148 = load i32, ptr %33, align 4, !tbaa !32
  %149 = load i32, ptr %29, align 4, !tbaa !32
  %150 = add i32 %149, %148
  store i32 %150, ptr %29, align 4, !tbaa !32
  br label %151

151:                                              ; preds = %145
  %152 = load i32, ptr %34, align 4, !tbaa !32
  %153 = add nsw i32 %152, -1
  store i32 %153, ptr %34, align 4, !tbaa !32
  %154 = load i32, ptr %35, align 4, !tbaa !32
  %155 = add nsw i32 %154, 1
  store i32 %155, ptr %35, align 4, !tbaa !32
  br label %56, !llvm.loop !95

156:                                              ; preds = %144, %102, %65
  call void @llvm.lifetime.end.p0(i64 4, ptr %35) #9
  call void @llvm.lifetime.end.p0(i64 4, ptr %34) #9
  br label %157

157:                                              ; preds = %156
  %158 = load i32, ptr %29, align 4, !tbaa !32
  %159 = load i32, ptr %31, align 4, !tbaa !32
  %160 = load i32, ptr %30, align 4, !tbaa !32
  %161 = add nsw i32 %159, %160
  %162 = add nsw i32 %161, 1
  %163 = ashr i32 %162, 1
  %164 = add i32 %158, %163
  %165 = load i32, ptr %31, align 4, !tbaa !32
  %166 = load i32, ptr %30, align 4, !tbaa !32
  %167 = add nsw i32 %165, %166
  %168 = add nsw i32 %167, 1
  %169 = udiv i32 %164, %168
  %170 = trunc i32 %169 to i8
  %171 = load ptr, ptr %21, align 8, !tbaa !31
  %172 = load i32, ptr %22, align 4, !tbaa !32
  %173 = sext i32 %172 to i64
  %174 = getelementptr inbounds i8, ptr %171, i64 %173
  store i8 %170, ptr %174, align 1, !tbaa !94
  call void @llvm.lifetime.end.p0(i64 4, ptr %33) #9
  call void @llvm.lifetime.end.p0(i64 4, ptr %32) #9
  call void @llvm.lifetime.end.p0(i64 4, ptr %31) #9
  call void @llvm.lifetime.end.p0(i64 4, ptr %30) #9
  call void @llvm.lifetime.end.p0(i64 4, ptr %29) #9
  call void @llvm.lifetime.end.p0(i64 4, ptr %28) #9
  call void @llvm.lifetime.end.p0(i64 4, ptr %27) #9
  call void @llvm.lifetime.end.p0(i64 4, ptr %26) #9
  call void @llvm.lifetime.end.p0(i64 4, ptr %25) #9
  call void @llvm.lifetime.end.p0(i64 4, ptr %24) #9
  br label %175

175:                                              ; preds = %157
  %176 = load i32, ptr %22, align 4, !tbaa !32
  %177 = add nsw i32 %176, 1
  store i32 %177, ptr %22, align 4, !tbaa !32
  br label %39, !llvm.loop !96

178:                                              ; preds = %43
  call void @llvm.lifetime.end.p0(i64 8, ptr %21) #9
  call void @llvm.lifetime.end.p0(i64 8, ptr %20) #9
  call void @llvm.lifetime.end.p0(i64 8, ptr %19) #9
  ret void
}